; ModuleID = 'source-C-CXX/2/1117.c'
source_filename = "source-C-CXX/2/1117.c"
target datalayout = "e-m:e-p270:32:32-p271:32:32-p272:64:64-i64:64-f80:128-n8:16:32:64-S128"
target triple = "x86_64-pc-linux-gnu"

@.str = private unnamed_addr constant [6 x i8] c"%d %d\00", align 1
@.str.1 = private unnamed_addr constant [3 x i8] c"%d\00", align 1
@.str.2 = private unnamed_addr constant [4 x i8] c"yes\00", align 1
@.str.3 = private unnamed_addr constant [3 x i8] c"no\00", align 1

; Function Attrs: nofree nounwind sspstrong uwtable
define dso_local i32 @main() local_unnamed_addr #0 {
  %1 = alloca i32, align 4
  %2 = alloca i32, align 4
  %3 = alloca [1000 x i32], align 16
  %4 = bitcast i32* %1 to i8*
  call void @llvm.lifetime.start.p0i8(i64 4, i8* nonnull %4) #3
  %5 = bitcast i32* %2 to i8*
  call void @llvm.lifetime.start.p0i8(i64 4, i8* nonnull %5) #3
  %6 = call i32 (i8*, ...) @__isoc99_scanf(i8* getelementptr inbounds ([6 x i8], [6 x i8]* @.str, i64 0, i64 0), i32* nonnull %1, i32* nonnull %2)
  %7 = bitcast [1000 x i32]* %3 to i8*
  call void @llvm.lifetime.start.p0i8(i64 4000, i8* nonnull %7) #3
  %8 = load i32, i32* %1, align 4, !tbaa !5
  %9 = icmp sgt i32 %8, 0
  br i1 %9, label %12, label %58

10:                                               ; preds = %12
  %11 = icmp sgt i32 %17, 0
  br i1 %11, label %32, label %58

12:                                               ; preds = %0, %12
  %13 = phi i64 [ %16, %12 ], [ 0, %0 ]
  %14 = getelementptr inbounds [1000 x i32], [1000 x i32]* %3, i64 0, i64 %13
  %15 = call i32 (i8*, ...) @__isoc99_scanf(i8* getelementptr inbounds ([3 x i8], [3 x i8]* @.str.1, i64 0, i64 0), i32* nonnull %14)
  %16 = add nuw nsw i64 %13, 1
  %17 = load i32, i32* %1, align 4, !tbaa !5
  %18 = sext i32 %17 to i64
  %19 = icmp slt i64 %16, %18
  br i1 %19, label %12, label %10, !llvm.loop !9

20:                                               ; preds = %52, %49
  %21 = phi i32 [ 0, %49 ], [ 1, %52 ]
  %22 = phi i32 [ %51, %49 ], [ %33, %52 ]
  %23 = sext i32 %22 to i64
  br label %24

24:                                               ; preds = %20, %32
  %25 = phi i64 [ %23, %20 ], [ %37, %32 ]
  %26 = phi i32 [ %22, %20 ], [ %33, %32 ]
  %27 = phi i32 [ %21, %20 ], [ 1, %32 ]
  %28 = icmp slt i64 %36, %25
  %29 = icmp eq i32 %27, 1
  %30 = and i1 %29, %28
  %31 = add nuw nsw i64 %35, 1
  br i1 %30, label %32, label %57, !llvm.loop !11

32:                                               ; preds = %10, %24
  %33 = phi i32 [ %26, %24 ], [ %17, %10 ]
  %34 = phi i64 [ %36, %24 ], [ 0, %10 ]
  %35 = phi i64 [ %31, %24 ], [ 1, %10 ]
  %36 = add nuw nsw i64 %34, 1
  %37 = sext i32 %33 to i64
  %38 = icmp slt i64 %36, %37
  br i1 %38, label %39, label %24

39:                                               ; preds = %32
  %40 = getelementptr inbounds [1000 x i32], [1000 x i32]* %3, i64 0, i64 %34
  %41 = load i32, i32* %40, align 4, !tbaa !5
  %42 = load i32, i32* %2, align 4, !tbaa !5
  br label %43

43:                                               ; preds = %39, %52
  %44 = phi i64 [ %35, %39 ], [ %53, %52 ]
  %45 = getelementptr inbounds [1000 x i32], [1000 x i32]* %3, i64 0, i64 %44
  %46 = load i32, i32* %45, align 4, !tbaa !5
  %47 = add nsw i32 %46, %41
  %48 = icmp eq i32 %47, %42
  br i1 %48, label %49, label %52

49:                                               ; preds = %43
  %50 = call i32 (i8*, ...) @printf(i8* nonnull dereferenceable(1) getelementptr inbounds ([4 x i8], [4 x i8]* @.str.2, i64 0, i64 0))
  %51 = load i32, i32* %1, align 4, !tbaa !5
  br label %20

52:                                               ; preds = %43
  %53 = add nuw nsw i64 %44, 1
  %54 = trunc i64 %53 to i32
  %55 = icmp sle i32 %33, %54
  %56 = or i1 %48, %55
  br i1 %56, label %20, label %43, !llvm.loop !12

57:                                               ; preds = %24
  br i1 %29, label %58, label %60

58:                                               ; preds = %0, %10, %57
  %59 = call i32 (i8*, ...) @printf(i8* nonnull dereferenceable(1) getelementptr inbounds ([3 x i8], [3 x i8]* @.str.3, i64 0, i64 0))
  br label %60

60:                                               ; preds = %58, %57
  call void @llvm.lifetime.end.p0i8(i64 4000, i8* nonnull %7) #3
  call void @llvm.lifetime.end.p0i8(i64 4, i8* nonnull %5) #3
  call void @llvm.lifetime.end.p0i8(i64 4, i8* nonnull %4) #3
  ret i32 0
}

; Function Attrs: argmemonly mustprogress nofree nosync nounwind willreturn
declare void @llvm.lifetime.start.p0i8(i64 immarg, i8* nocapture) #1

; Function Attrs: nofree nounwind
declare noundef i32 @__isoc99_scanf(i8* nocapture noundef readonly, ...) local_unnamed_addr #2

; Function Attrs: nofree nounwind
declare noundef i32 @printf(i8* nocapture noundef readonly, ...) local_unnamed_addr #2

; Function Attrs: argmemonly mustprogress nofree nosync nounwind willreturn
declare void @llvm.lifetime.end.p0i8(i64 immarg, i8* nocapture) #1


!llvm.module.flags = !{!0, !1, !2, !3}
!llvm.ident = !{!4}

!0 = !{i32 1, !"wchar_size", i32 4}
!1 = !{i32 7, !"PIC Level", i32 2}
!2 = !{i32 7, !"PIE Level", i32 2}
!3 = !{i32 7, !"uwtable", i32 1}
!4 = !{!"clang version 13.0.0"}
!5 = !{!6, !6, i64 0}
!6 = !{!"int", !7, i64 0}
!7 = !{!"omnipotent char", !8, i64 0}
!8 = !{!"Simple C/C++ TBAA"}
!9 = distinct !{!9, !10}
!10 = !{!"llvm.loop.mustprogress"}
!11 = distinct !{!11, !10}
!12 = distinct !{!12, !10}
